target datalayout = "e-m:e-p270:32:32-p271:32:32-p272:64:64-i64:64-i128:128-f80:128-n8:16:32:64-S128"
target triple = "x86_64-pc-linux-gnu"

; Function Attrs: nounwind uwtable
define internal void @SDL_ConvertQuadTo51(ptr noundef %0, ptr noundef %1, i32 noundef %2) #0 {
  %4 = alloca ptr, align 8
  %5 = alloca ptr, align 8
  %6 = alloca i32, align 4
  %7 = alloca i32, align 4
  store ptr %0, ptr %4, align 8
  store ptr %1, ptr %5, align 8
  store i32 %2, ptr %6, align 4
  call void @llvm.lifetime.start.p0(i64 4, ptr %7) #7
  %8 = load i32, ptr %6, align 4
  %9 = sub nsw i32 %8, 1
  %10 = mul nsw i32 %9, 4
  %11 = load ptr, ptr %5, align 8
  %12 = sext i32 %10 to i64
  %13 = getelementptr inbounds float, ptr %11, i64 %12
  store ptr %13, ptr %5, align 8
  %14 = load i32, ptr %6, align 4
  %15 = sub nsw i32 %14, 1
  %16 = mul nsw i32 %15, 6
  %17 = load ptr, ptr %4, align 8
  %18 = sext i32 %16 to i64
  %19 = getelementptr inbounds float, ptr %17, i64 %18
  store ptr %19, ptr %4, align 8
  %20 = load i32, ptr %6, align 4
  store i32 %20, ptr %7, align 4
  br label %21

21:                                               ; preds = %49, %3
  %22 = load i32, ptr %7, align 4
  %23 = icmp ne i32 %22, 0
  br i1 %23, label %24, label %56

24:                                               ; preds = %21
  %25 = load ptr, ptr %5, align 8
  %26 = getelementptr inbounds float, ptr %25, i64 3
  %27 = load float, ptr %26, align 4
  %28 = load ptr, ptr %4, align 8
  %29 = getelementptr inbounds float, ptr %28, i64 5
  store float %27, ptr %29, align 4
  %30 = load ptr, ptr %5, align 8
  %31 = getelementptr inbounds float, ptr %30, i64 2
  %32 = load float, ptr %31, align 4
  %33 = load ptr, ptr %4, align 8
  %34 = getelementptr inbounds float, ptr %33, i64 4
  store float %32, ptr %34, align 4
  %35 = load ptr, ptr %4, align 8
  %36 = getelementptr inbounds float, ptr %35, i64 3
  store float 0.000000e+00, ptr %36, align 4
  %37 = load ptr, ptr %4, align 8
  %38 = getelementptr inbounds float, ptr %37, i64 2
  store float 0.000000e+00, ptr %38, align 4
  %39 = load ptr, ptr %5, align 8
  %40 = getelementptr inbounds float, ptr %39, i64 1
  %41 = load float, ptr %40, align 4
  %42 = load ptr, ptr %4, align 8
  %43 = getelementptr inbounds float, ptr %42, i64 1
  store float %41, ptr %43, align 4
  %44 = load ptr, ptr %5, align 8
  %45 = getelementptr inbounds float, ptr %44, i64 0
  %46 = load float, ptr %45, align 4
  %47 = load ptr, ptr %4, align 8
  %48 = getelementptr inbounds float, ptr %47, i64 0
  store float %46, ptr %48, align 4
  br label %49

49:                                               ; preds = %24
  %50 = load i32, ptr %7, align 4
  %51 = add nsw i32 %50, -1
  store i32 %51, ptr %7, align 4
  %52 = load ptr, ptr %5, align 8
  %53 = getelementptr inbounds float, ptr %52, i64 -4
  store ptr %53, ptr %5, align 8
  %54 = load ptr, ptr %4, align 8
  %55 = getelementptr inbounds float, ptr %54, i64 -6
  store ptr %55, ptr %4, align 8
  br label %21, !llvm.loop !69

56:                                               ; preds = %21
  call void @llvm.lifetime.end.p0(i64 4, ptr %7) #7
  ret void
}