; Function Attrs: nofree norecurse nosync nounwind memory(argmem: readwrite) uwtable
define internal void @SDL_ConvertQuadTo51(ptr noundef writeonly captures(none) %0, ptr noundef readonly captures(none) %1, i32 noundef %2) #5 {
  %.not20 = icmp eq i32 %2, 0
  br i1 %.not20, label %._crit_edge, label %.lr.ph.preheader

.lr.ph.preheader:                                 ; preds = %3
  %4 = add nsw i32 %2, -1
  %5 = mul nsw i32 %4, 6
  %6 = sext i32 %5 to i64
  %7 = getelementptr inbounds float, ptr %0, i64 %6
  %8 = shl nsw i32 %4, 2
  %9 = sext i32 %8 to i64
  %10 = getelementptr inbounds float, ptr %1, i64 %9
  br label %.lr.ph

.lr.ph:                                           ; preds = %.lr.ph.preheader, %.lr.ph
  %.023 = phi i32 [ %23, %.lr.ph ], [ %2, %.lr.ph.preheader ]
  %.01822 = phi ptr [ %25, %.lr.ph ], [ %7, %.lr.ph.preheader ]
  %.01921 = phi ptr [ %24, %.lr.ph ], [ %10, %.lr.ph.preheader ]
  %11 = getelementptr inbounds nuw i8, ptr %.01921, i64 12
  %12 = load float, ptr %11, align 4
  %13 = getelementptr inbounds nuw i8, ptr %.01822, i64 20
  store float %12, ptr %13, align 4
  %14 = getelementptr inbounds nuw i8, ptr %.01921, i64 8
  %15 = load float, ptr %14, align 4
  %16 = getelementptr inbounds nuw i8, ptr %.01822, i64 16
  store float %15, ptr %16, align 4
  %17 = getelementptr inbounds nuw i8, ptr %.01822, i64 12
  store float 0.000000e+00, ptr %17, align 4
  %18 = getelementptr inbounds nuw i8, ptr %.01822, i64 8
  store float 0.000000e+00, ptr %18, align 4
  %19 = getelementptr inbounds nuw i8, ptr %.01921, i64 4
  %20 = load float, ptr %19, align 4
  %21 = getelementptr inbounds nuw i8, ptr %.01822, i64 4
  store float %20, ptr %21, align 4
  %22 = load float, ptr %.01921, align 4
  store float %22, ptr %.01822, align 4
  %23 = add nsw i32 %.023, -1
  %24 = getelementptr inbounds i8, ptr %.01921, i64 -16
  %25 = getelementptr inbounds i8, ptr %.01822, i64 -24
  %.not = icmp eq i32 %23, 0
  br i1 %.not, label %._crit_edge, label %.lr.ph, !llvm.loop !75

._crit_edge:                                      ; preds = %.lr.ph, %3
  ret void
}